target datalayout = "e-m:e-p270:32:32-p271:32:32-p272:64:64-i64:64-i128:128-f80:128-n8:16:32:64-S128"
target triple = "x86_64-pc-linux-gnu"

%struct.Vec_Int_t_ = type { i32, i32, ptr }
%struct.Vec_Str_t_ = type { i32, i32, ptr }
%struct.Lms_Man_t_ = type { i32, i32, i32, i32, i32, ptr, ptr, ptr, ptr, ptr, ptr, ptr, ptr, ptr, ptr, ptr, ptr, [1024 x i64], [1024 x i64], i32, i32, i32, i32, i32, i32, i32, i32, i32, i32, i64, i64, i64, i64, i64, i64, i64 }

@.str.3 = private unnamed_addr constant [60 x i8] c"Inputs = %2d.  Funcs = %8d.  Subgrs = %8d.  Ratio = %6.2f.\0A\00", align 1

; Function Attrs: nounwind uwtable
define internal void @Vec_StrFree(ptr noundef %0) #0 {
  %2 = alloca ptr, align 8
  store ptr %0, ptr %2, align 8
  %3 = load ptr, ptr %2, align 8
  %4 = getelementptr inbounds %struct.Vec_Str_t_, ptr %3, i32 0, i32 2
  %5 = load ptr, ptr %4, align 8
  %6 = icmp ne ptr %5, null
  br i1 %6, label %7, label %13

7:                                                ; preds = %1
  %8 = load ptr, ptr %2, align 8
  %9 = getelementptr inbounds %struct.Vec_Str_t_, ptr %8, i32 0, i32 2
  %10 = load ptr, ptr %9, align 8
  call void @free(ptr noundef %10) #12
  %11 = load ptr, ptr %2, align 8
  %12 = getelementptr inbounds %struct.Vec_Str_t_, ptr %11, i32 0, i32 2
  store ptr null, ptr %12, align 8
  br label %14

13:                                               ; preds = %1
  br label %14

14:                                               ; preds = %13, %7
  %15 = load ptr, ptr %2, align 8
  %16 = icmp ne ptr %15, null
  br i1 %16, label %17, label %19

17:                                               ; preds = %14
  %18 = load ptr, ptr %2, align 8
  call void @free(ptr noundef %18) #12
  store ptr null, ptr %2, align 8
  br label %20

19:                                               ; preds = %14
  br label %20

20:                                               ; preds = %19, %17
  ret void
}

; Function Attrs: nounwind uwtable
define internal signext i8 @Vec_StrEntry(ptr noundef %0, i32 noundef %1) #0 {
  %3 = alloca ptr, align 8
  %4 = alloca i32, align 4
  store ptr %0, ptr %3, align 8
  store i32 %1, ptr %4, align 4
  %5 = load ptr, ptr %3, align 8
  %6 = getelementptr inbounds %struct.Vec_Str_t_, ptr %5, i32 0, i32 2
  %7 = load ptr, ptr %6, align 8
  %8 = load i32, ptr %4, align 4
  %9 = sext i32 %8 to i64
  %10 = getelementptr inbounds i8, ptr %7, i64 %9
  %11 = load i8, ptr %10, align 1
  ret i8 %11
}

; Function Attrs: nounwind uwtable
define internal i32 @Vec_IntEntry(ptr noundef %0, i32 noundef %1) #0 {
  %3 = alloca ptr, align 8
  %4 = alloca i32, align 4
  store ptr %0, ptr %3, align 8
  store i32 %1, ptr %4, align 4
  %5 = load ptr, ptr %3, align 8
  %6 = getelementptr inbounds %struct.Vec_Int_t_, ptr %5, i32 0, i32 2
  %7 = load ptr, ptr %6, align 8
  %8 = load i32, ptr %4, align 4
  %9 = sext i32 %8 to i64
  %10 = getelementptr inbounds i32, ptr %7, i64 %9
  %11 = load i32, ptr %10, align 4
  ret i32 %11
}

; Function Attrs: nounwind uwtable
define internal i32 @Vec_IntSize(ptr noundef %0) #0 {
  %2 = alloca ptr, align 8
  store ptr %0, ptr %2, align 8
  %3 = load ptr, ptr %2, align 8
  %4 = getelementptr inbounds %struct.Vec_Int_t_, ptr %3, i32 0, i32 1
  %5 = load i32, ptr %4, align 4
  ret i32 %5
}

; Function Attrs: nounwind uwtable
define void @Lms_ManPrintFuncStats(ptr noundef %0) #0 {
  %2 = alloca ptr, align 8
  %3 = alloca ptr, align 8
  %4 = alloca [17 x i32], align 16
  %5 = alloca [17 x i32], align 16
  %6 = alloca i32, align 4
  %7 = alloca i32, align 4
  %8 = alloca i32, align 4
  store ptr %0, ptr %2, align 8
  call void @llvm.memset.p0.i64(ptr align 16 %4, i8 0, i64 68, i1 false)
  call void @llvm.memset.p0.i64(ptr align 16 %5, i8 0, i64 68, i1 false)
  %9 = load ptr, ptr %2, align 8
  %10 = getelementptr inbounds %struct.Lms_Man_t_, ptr %9, i32 0, i32 5
  %11 = load ptr, ptr %10, align 8
  %12 = icmp eq ptr %11, null
  br i1 %12, label %13, label %14

13:                                               ; preds = %1
  br label %124

14:                                               ; preds = %1
  %15 = load ptr, ptr %2, align 8
  %16 = getelementptr inbounds %struct.Lms_Man_t_, ptr %15, i32 0, i32 4
  %17 = load i32, ptr %16, align 8
  %18 = icmp ne i32 %17, 0
  br i1 %18, label %19, label %20

19:                                               ; preds = %14
  br label %124

20:                                               ; preds = %14
  %21 = load ptr, ptr %2, align 8
  %22 = getelementptr inbounds %struct.Lms_Man_t_, ptr %21, i32 0, i32 8
  %23 = load ptr, ptr %22, align 8
  %24 = icmp eq ptr %23, null
  br i1 %24, label %25, label %27

25:                                               ; preds = %20
  %26 = load ptr, ptr %2, align 8
  call void @Lms_ManPrepare(ptr noundef %26)
  br label %27

27:                                               ; preds = %25, %20
  %28 = load ptr, ptr %2, align 8
  %29 = getelementptr inbounds %struct.Lms_Man_t_, ptr %28, i32 0, i32 5
  %30 = load ptr, ptr %29, align 8
  %31 = call ptr @Lms_GiaSuppSizes(ptr noundef %30)
  store ptr %31, ptr %3, align 8
  store i32 0, ptr %6, align 4
  br label %32

32:                                               ; preds = %82, %27
  %33 = load i32, ptr %6, align 4
  %34 = load ptr, ptr %2, align 8
  %35 = getelementptr inbounds %struct.Lms_Man_t_, ptr %34, i32 0, i32 8
  %36 = load ptr, ptr %35, align 8
  %37 = call i32 @Vec_IntSize(ptr noundef %36)
  %38 = icmp slt i32 %33, %37
  br i1 %38, label %39, label %45

39:                                               ; preds = %32
  %40 = load ptr, ptr %2, align 8
  %41 = getelementptr inbounds %struct.Lms_Man_t_, ptr %40, i32 0, i32 8
  %42 = load ptr, ptr %41, align 8
  %43 = load i32, ptr %6, align 4
  %44 = call i32 @Vec_IntEntry(ptr noundef %42, i32 noundef %43)
  store i32 %44, ptr %7, align 4
  br label %45

45:                                               ; preds = %39, %32
  %46 = phi i1 [ false, %32 ], [ true, %39 ]
  br i1 %46, label %47, label %85

47:                                               ; preds = %45
  %48 = load i32, ptr %6, align 4
  %49 = load ptr, ptr %2, align 8
  %50 = getelementptr inbounds %struct.Lms_Man_t_, ptr %49, i32 0, i32 8
  %51 = load ptr, ptr %50, align 8
  %52 = call i32 @Vec_IntSize(ptr noundef %51)
  %53 = sub nsw i32 %52, 1
  %54 = icmp eq i32 %48, %53
  br i1 %54, label %55, label %56

55:                                               ; preds = %47
  br label %85

56:                                               ; preds = %47
  %57 = load ptr, ptr %2, align 8
  %58 = getelementptr inbounds %struct.Lms_Man_t_, ptr %57, i32 0, i32 8
  %59 = load ptr, ptr %58, align 8
  %60 = load i32, ptr %6, align 4
  %61 = add nsw i32 %60, 1
  %62 = call i32 @Vec_IntEntry(ptr noundef %59, i32 noundef %61)
  store i32 %62, ptr %8, align 4
  %63 = load ptr, ptr %3, align 8
  %64 = load i32, ptr %7, align 4
  %65 = call signext i8 @Vec_StrEntry(ptr noundef %63, i32 noundef %64)
  %66 = sext i8 %65 to i32
  %67 = sext i32 %66 to i64
  %68 = getelementptr inbounds [17 x i32], ptr %4, i64 0, i64 %67
  %69 = load i32, ptr %68, align 4
  %70 = add nsw i32 %69, 1
  store i32 %70, ptr %68, align 4
  %71 = load i32, ptr %8, align 4
  %72 = load i32, ptr %7, align 4
  %73 = sub nsw i32 %71, %72
  %74 = load ptr, ptr %3, align 8
  %75 = load i32, ptr %7, align 4
  %76 = call signext i8 @Vec_StrEntry(ptr noundef %74, i32 noundef %75)
  %77 = sext i8 %76 to i32
  %78 = sext i32 %77 to i64
  %79 = getelementptr inbounds [17 x i32], ptr %5, i64 0, i64 %78
  %80 = load i32, ptr %79, align 4
  %81 = add nsw i32 %80, %73
  store i32 %81, ptr %79, align 4
  br label %82

82:                                               ; preds = %56
  %83 = load i32, ptr %6, align 4
  %84 = add nsw i32 %83, 1
  store i32 %84, ptr %6, align 4
  br label %32, !llvm.loop !18

85:                                               ; preds = %55, %45
  store i32 0, ptr %6, align 4
  br label %86

86:                                               ; preds = %119, %85
  %87 = load i32, ptr %6, align 4
  %88 = icmp sle i32 %87, 16
  br i1 %88, label %89, label %122

89:                                               ; preds = %86
  %90 = load i32, ptr %6, align 4
  %91 = sext i32 %90 to i64
  %92 = getelementptr inbounds [17 x i32], ptr %4, i64 0, i64 %91
  %93 = load i32, ptr %92, align 4
  %94 = icmp ne i32 %93, 0
  br i1 %94, label %95, label %118

95:                                               ; preds = %89
  %96 = load i32, ptr %6, align 4
  %97 = load i32, ptr %6, align 4
  %98 = sext i32 %97 to i64
  %99 = getelementptr inbounds [17 x i32], ptr %4, i64 0, i64 %98
  %100 = load i32, ptr %99, align 4
  %101 = load i32, ptr %6, align 4
  %102 = sext i32 %101 to i64
  %103 = getelementptr inbounds [17 x i32], ptr %5, i64 0, i64 %102
  %104 = load i32, ptr %103, align 4
  %105 = load i32, ptr %6, align 4
  %106 = sext i32 %105 to i64
  %107 = getelementptr inbounds [17 x i32], ptr %5, i64 0, i64 %106
  %108 = load i32, ptr %107, align 4
  %109 = sitofp i32 %108 to double
  %110 = fmul double 1.000000e+00, %109
  %111 = load i32, ptr %6, align 4
  %112 = sext i32 %111 to i64
  %113 = getelementptr inbounds [17 x i32], ptr %4, i64 0, i64 %112
  %114 = load i32, ptr %113, align 4
  %115 = sitofp i32 %114 to double
  %116 = fdiv double %110, %115
  %117 = call i32 (ptr, ...) @printf(ptr noundef @.str.3, i32 noundef %96, i32 noundef %100, i32 noundef %104, double noundef %116)
  br label %118

118:                                              ; preds = %95, %89
  br label %119

119:                                              ; preds = %118
  %120 = load i32, ptr %6, align 4
  %121 = add nsw i32 %120, 1
  store i32 %121, ptr %6, align 4
  br label %86, !llvm.loop !19

122:                                              ; preds = %86
  %123 = load ptr, ptr %3, align 8
  call void @Vec_StrFree(ptr noundef %123)
  br label %124

124:                                              ; preds = %122, %19, %13
  ret void
}