; Function Attrs: nounwind uwtable
define void @Lms_ManPrintFuncStats(ptr noundef captures(none) %0) local_unnamed_addr #0 {
  %2 = alloca [17 x i32], align 16
  %3 = alloca [17 x i32], align 16
  call void @llvm.memset.p0.i64(ptr noundef nonnull align 16 dereferenceable(68) %2, i8 0, i64 68, i1 false)
  call void @llvm.memset.p0.i64(ptr noundef nonnull align 16 dereferenceable(68) %3, i8 0, i64 68, i1 false)
  %4 = getelementptr inbounds nuw i8, ptr %0, i64 24
  %5 = load ptr, ptr %4, align 8
  %6 = icmp eq ptr %5, null
  br i1 %6, label %54, label %7

7:                                                ; preds = %1
  %8 = getelementptr inbounds nuw i8, ptr %0, i64 16
  %9 = load i32, ptr %8, align 8
  %.not = icmp eq i32 %9, 0
  br i1 %.not, label %10, label %54

10:                                               ; preds = %7
  %11 = getelementptr inbounds nuw i8, ptr %0, i64 48
  %12 = load ptr, ptr %11, align 8
  %13 = icmp eq ptr %12, null
  br i1 %13, label %14, label %15

14:                                               ; preds = %10
  tail call void @Lms_ManPrepare(ptr noundef nonnull %0)
  %.pre = load ptr, ptr %4, align 8
  br label %15

15:                                               ; preds = %14, %10
  %16 = phi ptr [ %.pre, %14 ], [ %5, %10 ]
  %17 = tail call ptr @Lms_GiaSuppSizes(ptr noundef %16)
  %18 = load ptr, ptr %11, align 8
  %19 = getelementptr i8, ptr %18, i64 4
  %.val30 = load i32, ptr %19, align 4
  %or.cond36 = icmp slt i32 %.val30, 2
  br i1 %or.cond36, label %.critedge.preheader.preheader, label %.lr.ph

.lr.ph:                                           ; preds = %15
  %20 = getelementptr i8, ptr %18, i64 8
  %.val32 = load ptr, ptr %20, align 8
  %21 = getelementptr i8, ptr %17, i64 8
  %.val34 = load ptr, ptr %21, align 8
  %22 = add nsw i32 %.val30, -1
  %23 = add nsw i32 %.val30, -2
  %umin = tail call i32 @llvm.umin.i32(i32 %22, i32 %23)
  %24 = add nuw nsw i32 %umin, 1
  %wide.trip.count = zext nneg i32 %24 to i64
  %.pre44 = load i32, ptr %.val32, align 4
  br label %25

25:                                               ; preds = %.lr.ph, %25
  %26 = phi i32 [ %.pre44, %.lr.ph ], [ %28, %25 ]
  %indvars.iv = phi i64 [ 0, %.lr.ph ], [ %indvars.iv.next, %25 ]
  %indvars.iv.next = add nuw nsw i64 %indvars.iv, 1
  %27 = getelementptr inbounds nuw i32, ptr %.val32, i64 %indvars.iv.next
  %28 = load i32, ptr %27, align 4
  %29 = sext i32 %26 to i64
  %30 = getelementptr inbounds i8, ptr %.val34, i64 %29
  %31 = load i8, ptr %30, align 1
  %32 = sext i8 %31 to i64
  %33 = getelementptr inbounds [17 x i32], ptr %2, i64 0, i64 %32
  %34 = load i32, ptr %33, align 4
  %35 = add nsw i32 %34, 1
  store i32 %35, ptr %33, align 4
  %36 = sub i32 %28, %26
  %37 = getelementptr inbounds [17 x i32], ptr %3, i64 0, i64 %32
  %38 = load i32, ptr %37, align 4
  %39 = add nsw i32 %36, %38
  store i32 %39, ptr %37, align 4
  %exitcond = icmp eq i64 %indvars.iv.next, %wide.trip.count
  br i1 %exitcond, label %.critedge.preheader.preheader, label %25, !llvm.loop !25

.critedge.preheader.preheader:                    ; preds = %25, %15
  br label %.critedge.preheader

.critedge.preheader:                              ; preds = %.critedge.preheader.preheader, %.critedge
  %indvars.iv40 = phi i64 [ %indvars.iv.next41, %.critedge ], [ 0, %.critedge.preheader.preheader ]
  %40 = getelementptr inbounds nuw [17 x i32], ptr %2, i64 0, i64 %indvars.iv40
  %41 = load i32, ptr %40, align 4
  %.not29 = icmp eq i32 %41, 0
  br i1 %.not29, label %.critedge, label %42

42:                                               ; preds = %.critedge.preheader
  %43 = getelementptr inbounds nuw [17 x i32], ptr %3, i64 0, i64 %indvars.iv40
  %44 = load i32, ptr %43, align 4
  %45 = sitofp i32 %44 to double
  %46 = sitofp i32 %41 to double
  %47 = fdiv double %45, %46
  %48 = trunc nuw nsw i64 %indvars.iv40 to i32
  %49 = tail call i32 (ptr, ...) @printf(ptr noundef nonnull dereferenceable(1) @.str.3, i32 noundef %48, i32 noundef %41, i32 noundef %44, double noundef %47)
  br label %.critedge

.critedge:                                        ; preds = %.critedge.preheader, %42
  %indvars.iv.next41 = add nuw nsw i64 %indvars.iv40, 1
  %exitcond43.not = icmp eq i64 %indvars.iv.next41, 17
  br i1 %exitcond43.not, label %50, label %.critedge.preheader, !llvm.loop !26

50:                                               ; preds = %.critedge
  %51 = getelementptr inbounds nuw i8, ptr %17, i64 8
  %52 = load ptr, ptr %51, align 8
  %.not.i = icmp eq ptr %52, null
  br i1 %.not.i, label %Vec_StrFree.exit, label %53

53:                                               ; preds = %50
  tail call void @free(ptr noundef nonnull %52) #25
  br label %Vec_StrFree.exit

Vec_StrFree.exit:                                 ; preds = %50, %53
  tail call void @free(ptr noundef nonnull %17) #25
  br label %54

54:                                               ; preds = %7, %1, %Vec_StrFree.exit
  ret void
}